; Function Attrs: mustprogress uwtable
define void @_ZN8proxygen12Hex16Printer5printB5cxx11EPKN5folly5IOBufE(ptr noalias sret(%"class.std::__cxx11::basic_string") align 8 %agg.result, ptr nocapture nonnull readnone align 8 %this, ptr nocapture noundef readonly %buf) unnamed_addr #3 align 2 personality ptr @__gxx_personality_v0 {
entry:
  %out = alloca %"class.std::__cxx11::basic_stringstream", align 8
  %tmp = alloca [24 x i8], align 16
  call void @_ZNSt7__cxx1118basic_stringstreamIcSt11char_traitsIcESaIcEEC1Ev(ptr noundef nonnull align 8 dereferenceable(128) %out)
  %data_.i = getelementptr inbounds i8, ptr %buf, i64 8
  %0 = load ptr, ptr %data_.i, align 8
  %1 = load i64, ptr %buf, align 8
  %cmp8.not10 = icmp eq i64 %1, 0
  br i1 %cmp8.not10, label %for.end, label %for.body.lr.ph

for.body.lr.ph:                                   ; preds = %entry
  %add.ptr = getelementptr inbounds i8, ptr %out, i64 16
  br label %for.body

for.body:                                         ; preds = %for.body.lr.ph, %for.inc
  %i.09 = phi i64 [ 0, %for.body.lr.ph ], [ %add, %for.inc ]
  %arrayidx = getelementptr inbounds i8, ptr %0, i64 %i.09
  %2 = load i8, ptr %arrayidx, align 1
  %conv = zext i8 %2 to i32
  %call4 = call i32 (ptr, i64, ptr, ...) @snprintf(ptr noundef nonnull dereferenceable(1) %tmp, i64 noundef 3, ptr noundef nonnull @.str.5, i32 noundef %conv) #20
  %call7 = invoke noundef nonnull align 8 dereferenceable(8) ptr @_ZStlsISt11char_traitsIcEERSt13basic_ostreamIcT_ES5_PKc(ptr noundef nonnull align 8 dereferenceable(8) %add.ptr, ptr noundef nonnull %tmp)
          to label %invoke.cont6 unwind label %lpad.loopexit

invoke.cont6:                                     ; preds = %for.body
  %add = add nuw i64 %i.09, 1
  %3 = and i64 %i.09, 1
  %cmp8.not = icmp eq i64 %3, 0
  br i1 %cmp8.not, label %if.end, label %if.then

if.then:                                          ; preds = %invoke.cont6
  %call11 = invoke noundef nonnull align 8 dereferenceable(8) ptr @_ZStlsISt11char_traitsIcEERSt13basic_ostreamIcT_ES5_c(ptr noundef nonnull align 8 dereferenceable(8) %add.ptr, i8 noundef signext 32)
          to label %if.end unwind label %lpad.loopexit

lpad.loopexit:                                    ; preds = %for.body, %if.then, %if.then15
  %lpad.loopexit6 = landingpad { ptr, i32 }
          cleanup
  br label %lpad

lpad.loopexit.split-lp:                           ; preds = %for.end
  %lpad.loopexit.split-lp7 = landingpad { ptr, i32 }
          cleanup
  br label %lpad

lpad:                                             ; preds = %lpad.loopexit.split-lp, %lpad.loopexit
  %lpad.phi = phi { ptr, i32 } [ %lpad.loopexit6, %lpad.loopexit ], [ %lpad.loopexit.split-lp7, %lpad.loopexit.split-lp ]
  call void @_ZNSt7__cxx1118basic_stringstreamIcSt11char_traitsIcESaIcEED1Ev(ptr noundef nonnull align 8 dereferenceable(128) %out) #20
  resume { ptr, i32 } %lpad.phi

if.end:                                           ; preds = %if.then, %invoke.cont6
  %rem13 = and i64 %add, 15
  %cmp14 = icmp eq i64 %rem13, 0
  br i1 %cmp14, label %if.then15, label %for.inc

if.then15:                                        ; preds = %if.end
  %call18 = invoke noundef nonnull align 8 dereferenceable(8) ptr @_ZNSolsEPFRSoS_E(ptr noundef nonnull align 8 dereferenceable(8) %add.ptr, ptr noundef nonnull @_ZSt4endlIcSt11char_traitsIcEERSt13basic_ostreamIT_T0_ES6_)
          to label %for.inc unwind label %lpad.loopexit

for.inc:                                          ; preds = %if.end, %if.then15
  %4 = load i64, ptr %buf, align 8
  %cmp = icmp ult i64 %add, %4
  br i1 %cmp, label %for.body, label %for.end, !llvm.loop !10

for.end:                                          ; preds = %for.inc, %entry
  invoke void @_ZNKSt7__cxx1118basic_stringstreamIcSt11char_traitsIcESaIcEE3strEv(ptr sret(%"class.std::__cxx11::basic_string") align 8 %agg.result, ptr noundef nonnull align 8 dereferenceable(128) %out)
          to label %invoke.cont20 unwind label %lpad.loopexit.split-lp

invoke.cont20:                                    ; preds = %for.end
  call void @_ZNSt7__cxx1118basic_stringstreamIcSt11char_traitsIcESaIcEED1Ev(ptr noundef nonnull align 8 dereferenceable(128) %out) #20
  ret void
}